; Function Attrs: nounwind uwtable
define ptr @l_List_allM___at_Lean_isEnumType___spec__1___rarg___lambda__2(ptr noundef %0, ptr noundef %1, ptr noundef %2, ptr noundef %3, ptr noundef %4, i8 noundef zeroext %5) local_unnamed_addr #0 {
  %7 = icmp eq i8 %5, 0
  br i1 %7, label %8, label %82

8:                                                ; preds = %6
  %9 = ptrtoint ptr %4 to i64
  %10 = and i64 %9, 1
  %.not = icmp eq i64 %10, 0
  br i1 %.not, label %11, label %lean_dec.exit26

11:                                               ; preds = %8
  %12 = load i32, ptr %4, align 4, !tbaa !4
  %13 = icmp sgt i32 %12, 1
  br i1 %13, label %14, label %16, !prof !9

14:                                               ; preds = %11
  %15 = add nsw i32 %12, -1
  store i32 %15, ptr %4, align 4, !tbaa !4
  br label %lean_dec.exit26

16:                                               ; preds = %11
  %.not.i = icmp eq i32 %12, 0
  br i1 %.not.i, label %lean_dec.exit26, label %17

17:                                               ; preds = %16
  tail call void @lean_dec_ref_cold(ptr noundef nonnull %4) #4
  br label %lean_dec.exit26

lean_dec.exit26:                                  ; preds = %17, %16, %14, %8
  %18 = ptrtoint ptr %3 to i64
  %19 = and i64 %18, 1
  %.not41 = icmp eq i64 %19, 0
  br i1 %.not41, label %20, label %lean_dec.exit25

20:                                               ; preds = %lean_dec.exit26
  %21 = load i32, ptr %3, align 4, !tbaa !4
  %22 = icmp sgt i32 %21, 1
  br i1 %22, label %23, label %25, !prof !9

23:                                               ; preds = %20
  %24 = add nsw i32 %21, -1
  store i32 %24, ptr %3, align 4, !tbaa !4
  br label %lean_dec.exit25

25:                                               ; preds = %20
  %.not.i27 = icmp eq i32 %21, 0
  br i1 %.not.i27, label %lean_dec.exit25, label %26

26:                                               ; preds = %25
  tail call void @lean_dec_ref_cold(ptr noundef nonnull %3) #4
  br label %lean_dec.exit25

lean_dec.exit25:                                  ; preds = %26, %25, %23, %lean_dec.exit26
  %27 = ptrtoint ptr %2 to i64
  %28 = and i64 %27, 1
  %.not42 = icmp eq i64 %28, 0
  br i1 %.not42, label %29, label %lean_dec.exit24

29:                                               ; preds = %lean_dec.exit25
  %30 = load i32, ptr %2, align 4, !tbaa !4
  %31 = icmp sgt i32 %30, 1
  br i1 %31, label %32, label %34, !prof !9

32:                                               ; preds = %29
  %33 = add nsw i32 %30, -1
  store i32 %33, ptr %2, align 4, !tbaa !4
  br label %lean_dec.exit24

34:                                               ; preds = %29
  %.not.i29 = icmp eq i32 %30, 0
  br i1 %.not.i29, label %lean_dec.exit24, label %35

35:                                               ; preds = %34
  tail call void @lean_dec_ref_cold(ptr noundef nonnull %2) #4
  br label %lean_dec.exit24

lean_dec.exit24:                                  ; preds = %35, %34, %32, %lean_dec.exit25
  %36 = ptrtoint ptr %1 to i64
  %37 = and i64 %36, 1
  %.not43 = icmp eq i64 %37, 0
  br i1 %.not43, label %38, label %lean_dec.exit23

38:                                               ; preds = %lean_dec.exit24
  %39 = load i32, ptr %1, align 4, !tbaa !4
  %40 = icmp sgt i32 %39, 1
  br i1 %40, label %41, label %43, !prof !9

41:                                               ; preds = %38
  %42 = add nsw i32 %39, -1
  store i32 %42, ptr %1, align 4, !tbaa !4
  br label %lean_dec.exit23

43:                                               ; preds = %38
  %.not.i31 = icmp eq i32 %39, 0
  br i1 %.not.i31, label %lean_dec.exit23, label %44

44:                                               ; preds = %43
  tail call void @lean_dec_ref_cold(ptr noundef nonnull %1) #4
  br label %lean_dec.exit23

lean_dec.exit23:                                  ; preds = %44, %43, %41, %lean_dec.exit24
  %45 = getelementptr inbounds nuw i8, ptr %0, i64 8
  %46 = load ptr, ptr %45, align 8, !tbaa !10
  %47 = ptrtoint ptr %46 to i64
  %48 = and i64 %47, 1
  %.not44 = icmp eq i64 %48, 0
  br i1 %.not44, label %49, label %lean_inc.exit21

49:                                               ; preds = %lean_dec.exit23
  %.val.i = load i32, ptr %46, align 4, !tbaa !4
  %50 = icmp sgt i32 %.val.i, 0
  br i1 %50, label %51, label %53, !prof !9

51:                                               ; preds = %49
  %52 = add nuw i32 %.val.i, 1
  store i32 %52, ptr %46, align 4, !tbaa !4
  br label %lean_inc.exit21

53:                                               ; preds = %49
  %.not.i37 = icmp eq i32 %.val.i, 0
  br i1 %.not.i37, label %lean_inc.exit21, label %54

54:                                               ; preds = %53
  tail call void @lean_inc_ref_cold(ptr noundef nonnull %46) #4
  br label %lean_inc.exit21

lean_inc.exit21:                                  ; preds = %54, %53, %51, %lean_dec.exit23
  %55 = ptrtoint ptr %0 to i64
  %56 = and i64 %55, 1
  %.not45 = icmp eq i64 %56, 0
  br i1 %.not45, label %57, label %lean_dec.exit22

57:                                               ; preds = %lean_inc.exit21
  %58 = load i32, ptr %0, align 4, !tbaa !4
  %59 = icmp sgt i32 %58, 1
  br i1 %59, label %60, label %62, !prof !9

60:                                               ; preds = %57
  %61 = add nsw i32 %58, -1
  store i32 %61, ptr %0, align 4, !tbaa !4
  br label %lean_dec.exit22

62:                                               ; preds = %57
  %.not.i33 = icmp eq i32 %58, 0
  br i1 %.not.i33, label %lean_dec.exit22, label %63

63:                                               ; preds = %62
  tail call void @lean_dec_ref_cold(ptr noundef nonnull %0) #4
  br label %lean_dec.exit22

lean_dec.exit22:                                  ; preds = %63, %62, %60, %lean_inc.exit21
  %64 = getelementptr inbounds nuw i8, ptr %46, i64 16
  %65 = load ptr, ptr %64, align 8, !tbaa !10
  %66 = ptrtoint ptr %65 to i64
  %67 = and i64 %66, 1
  %.not46 = icmp eq i64 %67, 0
  br i1 %.not46, label %68, label %lean_inc.exit

68:                                               ; preds = %lean_dec.exit22
  %.val.i38 = load i32, ptr %65, align 4, !tbaa !4
  %69 = icmp sgt i32 %.val.i38, 0
  br i1 %69, label %70, label %72, !prof !9

70:                                               ; preds = %68
  %71 = add nuw i32 %.val.i38, 1
  store i32 %71, ptr %65, align 4, !tbaa !4
  br label %lean_inc.exit

72:                                               ; preds = %68
  %.not.i39 = icmp eq i32 %.val.i38, 0
  br i1 %.not.i39, label %lean_inc.exit, label %73

73:                                               ; preds = %72
  tail call void @lean_inc_ref_cold(ptr noundef nonnull %65) #4
  br label %lean_inc.exit

lean_inc.exit:                                    ; preds = %73, %72, %70, %lean_dec.exit22
  br i1 %.not44, label %74, label %lean_dec.exit

74:                                               ; preds = %lean_inc.exit
  %75 = load i32, ptr %46, align 4, !tbaa !4
  %76 = icmp sgt i32 %75, 1
  br i1 %76, label %77, label %79, !prof !9

77:                                               ; preds = %74
  %78 = add nsw i32 %75, -1
  store i32 %78, ptr %46, align 4, !tbaa !4
  br label %lean_dec.exit

79:                                               ; preds = %74
  %.not.i35 = icmp eq i32 %75, 0
  br i1 %.not.i35, label %lean_dec.exit, label %80

80:                                               ; preds = %79
  tail call void @lean_dec_ref_cold(ptr noundef nonnull %46) #4
  br label %lean_dec.exit

lean_dec.exit:                                    ; preds = %80, %79, %77, %lean_inc.exit
  %81 = tail call ptr @lean_apply_2(ptr noundef %65, ptr noundef nonnull inttoptr (i64 1 to ptr), ptr noundef nonnull inttoptr (i64 1 to ptr)) #4
  br label %84

82:                                               ; preds = %6
  %83 = tail call ptr @l_List_allM___at_Lean_isEnumType___spec__1___rarg(ptr noundef %0, ptr noundef %1, ptr noundef %2, ptr noundef %3, ptr noundef %4)
  br label %84

84:                                               ; preds = %82, %lean_dec.exit
  %.0 = phi ptr [ %81, %lean_dec.exit ], [ %83, %82 ]
  ret ptr %.0
}